target datalayout = "e-m:e-p270:32:32-p271:32:32-p272:64:64-i64:64-i128:128-f80:128-n8:16:32:64-S128"
target triple = "x86_64-pc-linux-gnu"

@.str = private unnamed_addr constant [4 x i8] c"all\00", align 1
@.str.21 = private unnamed_addr constant [2 x i8] c"*\00", align 1

; Function Attrs: nounwind uwtable
define dso_local void @prte_info_show_mca_params(ptr noundef %0, ptr noundef %1, i1 noundef zeroext %2) #0 {
  %4 = alloca ptr, align 8
  %5 = alloca ptr, align 8
  %6 = alloca i8, align 1
  %7 = alloca ptr, align 8
  %8 = alloca i32, align 4
  %9 = alloca i32, align 4
  store ptr %0, ptr %4, align 8, !tbaa !23
  store ptr %1, ptr %5, align 8, !tbaa !23
  %10 = zext i1 %2 to i8
  store i8 %10, ptr %6, align 1, !tbaa !4
  call void @llvm.lifetime.start.p0(i64 8, ptr %7) #9
  call void @llvm.lifetime.start.p0(i64 4, ptr %8) #9
  %11 = load ptr, ptr %5, align 8, !tbaa !23
  %12 = call i32 @strcmp(ptr noundef %11, ptr noundef @.str) #10
  %13 = icmp eq i32 0, %12
  br i1 %13, label %14, label %26

14:                                               ; preds = %3
  %15 = load ptr, ptr %4, align 8, !tbaa !23
  %16 = call i32 @pmix_mca_base_var_group_find(ptr noundef @.str.21, ptr noundef %15, ptr noundef null)
  store i32 %16, ptr %8, align 4, !tbaa !24
  %17 = load i32, ptr %8, align 4, !tbaa !24
  %18 = icmp sgt i32 0, %17
  br i1 %18, label %19, label %20

19:                                               ; preds = %14
  store i32 1, ptr %9, align 4
  br label %40

20:                                               ; preds = %14
  %21 = load i32, ptr %8, align 4, !tbaa !24
  %22 = call i32 @pmix_mca_base_var_group_get(i32 noundef %21, ptr noundef %7)
  %23 = load ptr, ptr %7, align 8, !tbaa !42
  %24 = load i8, ptr %6, align 1, !tbaa !4, !range !12, !noundef !13
  %25 = trunc i8 %24 to i1
  call void @prte_info_show_mca_group_params(ptr noundef %23, i1 noundef zeroext %25)
  br label %39

26:                                               ; preds = %3
  %27 = load ptr, ptr %4, align 8, !tbaa !23
  %28 = load ptr, ptr %5, align 8, !tbaa !23
  %29 = call i32 @pmix_mca_base_var_group_find(ptr noundef @.str.21, ptr noundef %27, ptr noundef %28)
  store i32 %29, ptr %8, align 4, !tbaa !24
  %30 = load i32, ptr %8, align 4, !tbaa !24
  %31 = icmp sgt i32 0, %30
  br i1 %31, label %32, label %33

32:                                               ; preds = %26
  store i32 1, ptr %9, align 4
  br label %40

33:                                               ; preds = %26
  %34 = load i32, ptr %8, align 4, !tbaa !24
  %35 = call i32 @pmix_mca_base_var_group_get(i32 noundef %34, ptr noundef %7)
  %36 = load ptr, ptr %7, align 8, !tbaa !42
  %37 = load i8, ptr %6, align 1, !tbaa !4, !range !12, !noundef !13
  %38 = trunc i8 %37 to i1
  call void @prte_info_show_mca_group_params(ptr noundef %36, i1 noundef zeroext %38)
  br label %39

39:                                               ; preds = %33, %20
  store i32 0, ptr %9, align 4
  br label %40

40:                                               ; preds = %39, %32, %19
  call void @llvm.lifetime.end.p0(i64 4, ptr %8) #9
  call void @llvm.lifetime.end.p0(i64 8, ptr %7) #9
  %41 = load i32, ptr %9, align 4
  switch i32 %41, label %43 [
    i32 0, label %42
    i32 1, label %42
  ]

42:                                               ; preds = %40, %40
  ret void

43:                                               ; preds = %40
  unreachable
}