; Function Attrs: nounwind uwtable
define dso_local void @prte_info_show_mca_params(ptr noundef %0, ptr noundef %1, i1 noundef zeroext %2) local_unnamed_addr #0 {
  %4 = alloca ptr, align 8
  call void @llvm.lifetime.start.p0(i64 8, ptr nonnull %4) #8
  %5 = tail call i32 @strcmp(ptr noundef nonnull dereferenceable(1) %1, ptr noundef nonnull dereferenceable(4) @.str) #9
  %6 = icmp eq i32 %5, 0
  br i1 %6, label %7, label %10

7:                                                ; preds = %3
  %8 = tail call i32 @pmix_mca_base_var_group_find(ptr noundef nonnull @.str.21, ptr noundef %0, ptr noundef null) #8
  %9 = icmp slt i32 %8, 0
  br i1 %9, label %15, label %.sink.split

10:                                               ; preds = %3
  %11 = tail call i32 @pmix_mca_base_var_group_find(ptr noundef nonnull @.str.21, ptr noundef %0, ptr noundef nonnull %1) #8
  %12 = icmp slt i32 %11, 0
  br i1 %12, label %15, label %.sink.split

.sink.split:                                      ; preds = %10, %7
  %.sink = phi i32 [ %8, %7 ], [ %11, %10 ]
  %13 = call i32 @pmix_mca_base_var_group_get(i32 noundef %.sink, ptr noundef nonnull %4) #8
  %14 = load ptr, ptr %4, align 8, !tbaa !27
  call fastcc void @prte_info_show_mca_group_params(ptr noundef %14)
  br label %15

15:                                               ; preds = %.sink.split, %10, %7
  call void @llvm.lifetime.end.p0(i64 8, ptr nonnull %4) #8
  ret void
}